target datalayout = "e-m:e-p270:32:32-p271:32:32-p272:64:64-i64:64-i128:128-f80:128-n8:16:32:64-S128"
target triple = "x86_64-pc-linux-gnu"

%struct.saucy = type { i32, ptr, ptr, ptr, ptr, %struct.coloring, %struct.coloring, ptr, ptr, ptr, ptr, ptr, i32, i32, ptr, i32, ptr, ptr, ptr, ptr, ptr, ptr, ptr, i32, i32, ptr, i32, ptr, i32, i32, ptr, ptr, ptr, ptr, ptr, ptr, ptr, ptr, ptr, ptr, i32, ptr, ptr, ptr, i32, ptr, i32, ptr, ptr, ptr, ptr, i32, ptr, ptr, i32, ptr, ptr, ptr, ptr, ptr, ptr, ptr, ptr, ptr, ptr, ptr, ptr, ptr, ptr, ptr, ptr, ptr, ptr, ptr, ptr, ptr, ptr, double, i32, i32, i32, ptr, ptr, ptr, ptr }
%struct.coloring = type { ptr, ptr, ptr, ptr }
%struct.Abc_Ntk_t_ = type { i32, i32, ptr, ptr, ptr, ptr, ptr, ptr, ptr, ptr, ptr, ptr, ptr, [11 x i32], i32, i32, i32, i32, ptr, i32, ptr, ptr, i32, i32, i32, double, i32, %struct.Vec_Int_t_, ptr, ptr, ptr, ptr, ptr, float, i32, ptr, ptr, ptr, ptr, ptr, ptr, ptr, ptr, ptr, ptr, ptr, ptr, ptr, ptr, ptr, ptr, ptr, ptr, ptr, ptr, ptr }
%struct.Vec_Int_t_ = type { i32, i32, ptr }
%struct.Vec_Ptr_t_ = type { i32, i32, ptr }
%struct.saucy_graph = type { i32, i32, ptr, ptr }

@NUM_SIM1_ITERATION = global i32 0, align 4

; Function Attrs: nounwind uwtable
define internal i32 @Vec_PtrSize(ptr noundef %0) #0 {
  %2 = alloca ptr, align 8
  store ptr %0, ptr %2, align 8
  %3 = load ptr, ptr %2, align 8
  %4 = getelementptr inbounds %struct.Vec_Ptr_t_, ptr %3, i32 0, i32 1
  %5 = load i32, ptr %4, align 4
  ret i32 %5
}

; Function Attrs: nounwind uwtable
define internal void @Vec_IntFree(ptr noundef %0) #0 {
  %2 = alloca ptr, align 8
  store ptr %0, ptr %2, align 8
  %3 = load ptr, ptr %2, align 8
  %4 = getelementptr inbounds %struct.Vec_Int_t_, ptr %3, i32 0, i32 2
  %5 = load ptr, ptr %4, align 8
  %6 = icmp ne ptr %5, null
  br i1 %6, label %7, label %13

7:                                                ; preds = %1
  %8 = load ptr, ptr %2, align 8
  %9 = getelementptr inbounds %struct.Vec_Int_t_, ptr %8, i32 0, i32 2
  %10 = load ptr, ptr %9, align 8
  call void @free(ptr noundef %10) #10
  %11 = load ptr, ptr %2, align 8
  %12 = getelementptr inbounds %struct.Vec_Int_t_, ptr %11, i32 0, i32 2
  store ptr null, ptr %12, align 8
  br label %14

13:                                               ; preds = %1
  br label %14

14:                                               ; preds = %13, %7
  %15 = load ptr, ptr %2, align 8
  %16 = icmp ne ptr %15, null
  br i1 %16, label %17, label %19

17:                                               ; preds = %14
  %18 = load ptr, ptr %2, align 8
  call void @free(ptr noundef %18) #10
  store ptr null, ptr %2, align 8
  br label %20

19:                                               ; preds = %14
  br label %20

20:                                               ; preds = %19, %17
  ret void
}

; Function Attrs: nounwind uwtable
define internal i32 @refineByDepGraph(ptr noundef %0, ptr noundef %1) #0 {
  %3 = alloca ptr, align 8
  %4 = alloca ptr, align 8
  store ptr %0, ptr %3, align 8
  store ptr %1, ptr %4, align 8
  %5 = load ptr, ptr %3, align 8
  %6 = getelementptr inbounds %struct.saucy, ptr %5, i32 0, i32 63
  %7 = load ptr, ptr %6, align 8
  %8 = load ptr, ptr %3, align 8
  %9 = getelementptr inbounds %struct.saucy, ptr %8, i32 0, i32 1
  store ptr %7, ptr %9, align 8
  %10 = load ptr, ptr %3, align 8
  %11 = getelementptr inbounds %struct.saucy, ptr %10, i32 0, i32 64
  %12 = load ptr, ptr %11, align 8
  %13 = load ptr, ptr %3, align 8
  %14 = getelementptr inbounds %struct.saucy, ptr %13, i32 0, i32 2
  store ptr %12, ptr %14, align 8
  %15 = load ptr, ptr %3, align 8
  %16 = load ptr, ptr %4, align 8
  %17 = call i32 @refine(ptr noundef %15, ptr noundef %16)
  ret i32 %17
}

; Function Attrs: nounwind uwtable
define internal void @add_induce(ptr noundef %0, ptr noundef %1, i32 noundef %2) #0 {
  %4 = alloca ptr, align 8
  %5 = alloca ptr, align 8
  %6 = alloca i32, align 4
  store ptr %0, ptr %4, align 8
  store ptr %1, ptr %5, align 8
  store i32 %2, ptr %6, align 4
  %7 = load ptr, ptr %5, align 8
  %8 = getelementptr inbounds %struct.coloring, ptr %7, i32 0, i32 3
  %9 = load ptr, ptr %8, align 8
  %10 = load i32, ptr %6, align 4
  %11 = sext i32 %10 to i64
  %12 = getelementptr inbounds i32, ptr %9, i64 %11
  %13 = load i32, ptr %12, align 4
  %14 = icmp ne i32 %13, 0
  br i1 %14, label %26, label %15

15:                                               ; preds = %3
  %16 = load i32, ptr %6, align 4
  %17 = load ptr, ptr %4, align 8
  %18 = getelementptr inbounds %struct.saucy, ptr %17, i32 0, i32 11
  %19 = load ptr, ptr %18, align 8
  %20 = load ptr, ptr %4, align 8
  %21 = getelementptr inbounds %struct.saucy, ptr %20, i32 0, i32 13
  %22 = load i32, ptr %21, align 4
  %23 = add nsw i32 %22, 1
  store i32 %23, ptr %21, align 4
  %24 = sext i32 %22 to i64
  %25 = getelementptr inbounds i32, ptr %19, i64 %24
  store i32 %16, ptr %25, align 4
  br label %37

26:                                               ; preds = %3
  %27 = load i32, ptr %6, align 4
  %28 = load ptr, ptr %4, align 8
  %29 = getelementptr inbounds %struct.saucy, ptr %28, i32 0, i32 10
  %30 = load ptr, ptr %29, align 8
  %31 = load ptr, ptr %4, align 8
  %32 = getelementptr inbounds %struct.saucy, ptr %31, i32 0, i32 12
  %33 = load i32, ptr %32, align 8
  %34 = add nsw i32 %33, 1
  store i32 %34, ptr %32, align 8
  %35 = sext i32 %33 to i64
  %36 = getelementptr inbounds i32, ptr %30, i64 %35
  store i32 %27, ptr %36, align 4
  br label %37

37:                                               ; preds = %26, %15
  %38 = load ptr, ptr %4, align 8
  %39 = getelementptr inbounds %struct.saucy, ptr %38, i32 0, i32 9
  %40 = load ptr, ptr %39, align 8
  %41 = load i32, ptr %6, align 4
  %42 = sext i32 %41 to i64
  %43 = getelementptr inbounds i8, ptr %40, i64 %42
  store i8 1, ptr %43, align 1
  ret void
}

; Function Attrs: nounwind uwtable
define internal i32 @Abc_NtkPoNum(ptr noundef %0) #0 {
  %2 = alloca ptr, align 8
  store ptr %0, ptr %2, align 8
  %3 = load ptr, ptr %2, align 8
  %4 = getelementptr inbounds %struct.Abc_Ntk_t_, ptr %3, i32 0, i32 7
  %5 = load ptr, ptr %4, align 8
  %6 = call i32 @Vec_PtrSize(ptr noundef %5)
  ret i32 %6
}

; Function Attrs: nounwind uwtable
define internal i32 @refineBySim1_init(ptr noundef %0, ptr noundef %1) #0 {
  %3 = alloca i32, align 4
  %4 = alloca ptr, align 8
  %5 = alloca ptr, align 8
  %6 = alloca ptr, align 8
  %7 = alloca ptr, align 8
  %8 = alloca i32, align 4
  %9 = alloca i32, align 4
  %10 = alloca i32, align 4
  %11 = alloca i32, align 4
  store ptr %0, ptr %4, align 8
  store ptr %1, ptr %5, align 8
  %12 = load ptr, ptr %4, align 8
  %13 = getelementptr inbounds %struct.saucy, ptr %12, i32 0, i32 61
  %14 = load ptr, ptr %13, align 8
  %15 = call i32 @Abc_NtkPoNum(ptr noundef %14)
  %16 = icmp eq i32 %15, 1
  br i1 %16, label %17, label %18

17:                                               ; preds = %2
  store i32 1, ptr %3, align 4
  br label %172

18:                                               ; preds = %2
  store i32 0, ptr %8, align 4
  br label %19

19:                                               ; preds = %168, %18
  %20 = load i32, ptr %8, align 4
  %21 = load i32, ptr @NUM_SIM1_ITERATION, align 4
  %22 = icmp slt i32 %20, %21
  br i1 %22, label %23, label %171

23:                                               ; preds = %19
  store i32 1, ptr %10, align 4
  store i32 0, ptr %9, align 4
  br label %24

24:                                               ; preds = %42, %23
  %25 = load i32, ptr %9, align 4
  %26 = load ptr, ptr %4, align 8
  %27 = getelementptr inbounds %struct.saucy, ptr %26, i32 0, i32 61
  %28 = load ptr, ptr %27, align 8
  %29 = call i32 @Abc_NtkPoNum(ptr noundef %28)
  %30 = icmp slt i32 %25, %29
  br i1 %30, label %31, label %45

31:                                               ; preds = %24
  %32 = load ptr, ptr %5, align 8
  %33 = getelementptr inbounds %struct.coloring, ptr %32, i32 0, i32 3
  %34 = load ptr, ptr %33, align 8
  %35 = load i32, ptr %9, align 4
  %36 = sext i32 %35 to i64
  %37 = getelementptr inbounds i32, ptr %34, i64 %36
  %38 = load i32, ptr %37, align 4
  %39 = icmp ne i32 %38, 0
  br i1 %39, label %40, label %41

40:                                               ; preds = %31
  store i32 0, ptr %10, align 4
  br label %45

41:                                               ; preds = %31
  br label %42

42:                                               ; preds = %41
  %43 = load i32, ptr %9, align 4
  %44 = add nsw i32 %43, 1
  store i32 %44, ptr %9, align 4
  br label %24, !llvm.loop !27

45:                                               ; preds = %40, %24
  %46 = load i32, ptr %10, align 4
  %47 = icmp ne i32 %46, 0
  br i1 %47, label %48, label %49

48:                                               ; preds = %45
  br label %171

49:                                               ; preds = %45
  %50 = load ptr, ptr %4, align 8
  %51 = getelementptr inbounds %struct.saucy, ptr %50, i32 0, i32 61
  %52 = load ptr, ptr %51, align 8
  %53 = load ptr, ptr %5, align 8
  %54 = call ptr @assignRandomBitsToCells(ptr noundef %52, ptr noundef %53)
  store ptr %54, ptr %7, align 8
  %55 = load ptr, ptr %4, align 8
  %56 = getelementptr inbounds %struct.saucy, ptr %55, i32 0, i32 61
  %57 = load ptr, ptr %56, align 8
  %58 = load ptr, ptr %5, align 8
  %59 = load ptr, ptr %7, align 8
  %60 = load ptr, ptr %4, align 8
  %61 = getelementptr inbounds %struct.saucy, ptr %60, i32 0, i32 65
  %62 = load ptr, ptr %61, align 8
  %63 = load ptr, ptr %4, align 8
  %64 = getelementptr inbounds %struct.saucy, ptr %63, i32 0, i32 66
  %65 = load ptr, ptr %64, align 8
  %66 = call ptr @buildSim1Graph(ptr noundef %57, ptr noundef %58, ptr noundef %59, ptr noundef %62, ptr noundef %65)
  store ptr %66, ptr %6, align 8
  %67 = load ptr, ptr %6, align 8
  %68 = getelementptr inbounds %struct.saucy_graph, ptr %67, i32 0, i32 2
  %69 = load ptr, ptr %68, align 8
  %70 = load ptr, ptr %4, align 8
  %71 = getelementptr inbounds %struct.saucy, ptr %70, i32 0, i32 1
  store ptr %69, ptr %71, align 8
  %72 = load ptr, ptr %6, align 8
  %73 = getelementptr inbounds %struct.saucy_graph, ptr %72, i32 0, i32 3
  %74 = load ptr, ptr %73, align 8
  %75 = load ptr, ptr %4, align 8
  %76 = getelementptr inbounds %struct.saucy, ptr %75, i32 0, i32 2
  store ptr %74, ptr %76, align 8
  %77 = load ptr, ptr %4, align 8
  %78 = getelementptr inbounds %struct.saucy, ptr %77, i32 0, i32 40
  %79 = load i32, ptr %78, align 8
  store i32 %79, ptr %11, align 4
  store i32 0, ptr %9, align 4
  br label %80

80:                                               ; preds = %90, %49
  %81 = load i32, ptr %9, align 4
  %82 = load ptr, ptr %4, align 8
  %83 = getelementptr inbounds %struct.saucy, ptr %82, i32 0, i32 0
  %84 = load i32, ptr %83, align 8
  %85 = icmp slt i32 %81, %84
  br i1 %85, label %86, label %101

86:                                               ; preds = %80
  %87 = load ptr, ptr %4, align 8
  %88 = load ptr, ptr %5, align 8
  %89 = load i32, ptr %9, align 4
  call void @add_induce(ptr noundef %87, ptr noundef %88, i32 noundef %89)
  br label %90

90:                                               ; preds = %86
  %91 = load ptr, ptr %5, align 8
  %92 = getelementptr inbounds %struct.coloring, ptr %91, i32 0, i32 3
  %93 = load ptr, ptr %92, align 8
  %94 = load i32, ptr %9, align 4
  %95 = sext i32 %94 to i64
  %96 = getelementptr inbounds i32, ptr %93, i64 %95
  %97 = load i32, ptr %96, align 4
  %98 = add nsw i32 %97, 1
  %99 = load i32, ptr %9, align 4
  %100 = add nsw i32 %99, %98
  store i32 %100, ptr %9, align 4
  br label %80, !llvm.loop !28

101:                                              ; preds = %80
  %102 = load ptr, ptr %4, align 8
  %103 = load ptr, ptr %5, align 8
  %104 = call i32 @refine(ptr noundef %102, ptr noundef %103)
  %105 = load ptr, ptr %4, align 8
  %106 = getelementptr inbounds %struct.saucy, ptr %105, i32 0, i32 40
  %107 = load i32, ptr %106, align 8
  %108 = load i32, ptr %11, align 4
  %109 = icmp sgt i32 %107, %108
  br i1 %109, label %110, label %136

110:                                              ; preds = %101
  store i32 0, ptr %8, align 4
  store i32 0, ptr %9, align 4
  br label %111

111:                                              ; preds = %121, %110
  %112 = load i32, ptr %9, align 4
  %113 = load ptr, ptr %4, align 8
  %114 = getelementptr inbounds %struct.saucy, ptr %113, i32 0, i32 0
  %115 = load i32, ptr %114, align 8
  %116 = icmp slt i32 %112, %115
  br i1 %116, label %117, label %132

117:                                              ; preds = %111
  %118 = load ptr, ptr %4, align 8
  %119 = load ptr, ptr %5, align 8
  %120 = load i32, ptr %9, align 4
  call void @add_induce(ptr noundef %118, ptr noundef %119, i32 noundef %120)
  br label %121

121:                                              ; preds = %117
  %122 = load ptr, ptr %5, align 8
  %123 = getelementptr inbounds %struct.coloring, ptr %122, i32 0, i32 3
  %124 = load ptr, ptr %123, align 8
  %125 = load i32, ptr %9, align 4
  %126 = sext i32 %125 to i64
  %127 = getelementptr inbounds i32, ptr %124, i64 %126
  %128 = load i32, ptr %127, align 4
  %129 = add nsw i32 %128, 1
  %130 = load i32, ptr %9, align 4
  %131 = add nsw i32 %130, %129
  store i32 %131, ptr %9, align 4
  br label %111, !llvm.loop !29

132:                                              ; preds = %111
  %133 = load ptr, ptr %4, align 8
  %134 = load ptr, ptr %5, align 8
  %135 = call i32 @refineByDepGraph(ptr noundef %133, ptr noundef %134)
  br label %136

136:                                              ; preds = %132, %101
  %137 = load ptr, ptr %7, align 8
  call void @Vec_IntFree(ptr noundef %137)
  %138 = load ptr, ptr %6, align 8
  %139 = getelementptr inbounds %struct.saucy_graph, ptr %138, i32 0, i32 2
  %140 = load ptr, ptr %139, align 8
  %141 = icmp ne ptr %140, null
  br i1 %141, label %142, label %148

142:                                              ; preds = %136
  %143 = load ptr, ptr %6, align 8
  %144 = getelementptr inbounds %struct.saucy_graph, ptr %143, i32 0, i32 2
  %145 = load ptr, ptr %144, align 8
  call void @free(ptr noundef %145) #10
  %146 = load ptr, ptr %6, align 8
  %147 = getelementptr inbounds %struct.saucy_graph, ptr %146, i32 0, i32 2
  store ptr null, ptr %147, align 8
  br label %149

148:                                              ; preds = %136
  br label %149

149:                                              ; preds = %148, %142
  %150 = load ptr, ptr %6, align 8
  %151 = getelementptr inbounds %struct.saucy_graph, ptr %150, i32 0, i32 3
  %152 = load ptr, ptr %151, align 8
  %153 = icmp ne ptr %152, null
  br i1 %153, label %154, label %160

154:                                              ; preds = %149
  %155 = load ptr, ptr %6, align 8
  %156 = getelementptr inbounds %struct.saucy_graph, ptr %155, i32 0, i32 3
  %157 = load ptr, ptr %156, align 8
  call void @free(ptr noundef %157) #10
  %158 = load ptr, ptr %6, align 8
  %159 = getelementptr inbounds %struct.saucy_graph, ptr %158, i32 0, i32 3
  store ptr null, ptr %159, align 8
  br label %161

160:                                              ; preds = %149
  br label %161

161:                                              ; preds = %160, %154
  %162 = load ptr, ptr %6, align 8
  %163 = icmp ne ptr %162, null
  br i1 %163, label %164, label %166

164:                                              ; preds = %161
  %165 = load ptr, ptr %6, align 8
  call void @free(ptr noundef %165) #10
  store ptr null, ptr %6, align 8
  br label %167

166:                                              ; preds = %161
  br label %167

167:                                              ; preds = %166, %164
  br label %168

168:                                              ; preds = %167
  %169 = load i32, ptr %8, align 4
  %170 = add nsw i32 %169, 1
  store i32 %170, ptr %8, align 4
  br label %19, !llvm.loop !30

171:                                              ; preds = %48, %19
  store i32 1, ptr %3, align 4
  br label %172

172:                                              ; preds = %171, %17
  %173 = load i32, ptr %3, align 4
  ret i32 %173
}