; Function Attrs: nounwind uwtable
define internal noundef i32 @refineBySim1_init(ptr noundef %0, ptr noundef %1) #0 {
  %3 = getelementptr inbounds nuw i8, ptr %0, i64 512
  %4 = load ptr, ptr %3, align 8
  %5 = getelementptr i8, ptr %4, i64 48
  %.val62 = load ptr, ptr %5, align 8
  %6 = getelementptr i8, ptr %.val62, i64 4
  %.val62.val = load i32, ptr %6, align 4
  %7 = icmp ne i32 %.val62.val, 1
  %8 = load i32, ptr @NUM_SIM1_ITERATION, align 4
  %9 = icmp sgt i32 %8, 0
  %or.cond = select i1 %7, i1 %9, i1 false
  br i1 %or.cond, label %.preheader70.lr.ph, label %.critedge

.preheader70.lr.ph:                               ; preds = %2
  %10 = getelementptr inbounds nuw i8, ptr %1, i64 24
  %11 = getelementptr inbounds nuw i8, ptr %0, i64 544
  %12 = getelementptr inbounds nuw i8, ptr %0, i64 552
  %13 = getelementptr inbounds nuw i8, ptr %0, i64 8
  %14 = getelementptr inbounds nuw i8, ptr %0, i64 16
  %15 = getelementptr inbounds nuw i8, ptr %0, i64 344
  %16 = getelementptr inbounds nuw i8, ptr %0, i64 128
  %17 = getelementptr inbounds nuw i8, ptr %0, i64 144
  %18 = getelementptr inbounds nuw i8, ptr %0, i64 136
  %19 = getelementptr inbounds nuw i8, ptr %0, i64 148
  %20 = getelementptr inbounds nuw i8, ptr %0, i64 120
  %21 = getelementptr inbounds nuw i8, ptr %0, i64 528
  %22 = getelementptr inbounds nuw i8, ptr %0, i64 536
  br label %.preheader70

.preheader70:                                     ; preds = %.preheader70.lr.ph, %104
  %.05481 = phi i32 [ 0, %.preheader70.lr.ph ], [ %105, %104 ]
  %23 = load ptr, ptr %3, align 8
  %24 = getelementptr i8, ptr %23, i64 48
  %.val = load ptr, ptr %24, align 8
  %25 = getelementptr i8, ptr %.val, i64 4
  %.val.val = load i32, ptr %25, align 4
  %26 = icmp sgt i32 %.val.val, 0
  br i1 %26, label %.lr.ph, label %.critedge

.lr.ph:                                           ; preds = %.preheader70
  %27 = load ptr, ptr %10, align 8
  %wide.trip.count = zext nneg i32 %.val.val to i64
  br label %29

28:                                               ; preds = %29
  %indvars.iv.next = add nuw nsw i64 %indvars.iv, 1
  %exitcond.not = icmp eq i64 %indvars.iv.next, %wide.trip.count
  br i1 %exitcond.not, label %.critedge, label %29, !llvm.loop !55

29:                                               ; preds = %.lr.ph, %28
  %indvars.iv = phi i64 [ 0, %.lr.ph ], [ %indvars.iv.next, %28 ]
  %30 = getelementptr inbounds nuw i32, ptr %27, i64 %indvars.iv
  %31 = load i32, ptr %30, align 4
  %.not = icmp eq i32 %31, 0
  br i1 %.not, label %28, label %32

32:                                               ; preds = %29
  %33 = tail call fastcc ptr @assignRandomBitsToCells(ptr noundef nonnull %23, ptr noundef nonnull %1)
  %34 = load ptr, ptr %3, align 8
  %35 = load ptr, ptr %11, align 8
  %36 = load ptr, ptr %12, align 8
  %37 = tail call fastcc ptr @buildSim1Graph(ptr noundef %34, ptr noundef nonnull %1, ptr noundef %33, ptr noundef %35, ptr noundef %36)
  %38 = getelementptr inbounds nuw i8, ptr %37, i64 8
  %39 = load ptr, ptr %38, align 8
  store ptr %39, ptr %13, align 8
  %40 = getelementptr inbounds nuw i8, ptr %37, i64 16
  %41 = load ptr, ptr %40, align 8
  store ptr %41, ptr %14, align 8
  %42 = load i32, ptr %15, align 8
  %43 = load i32, ptr %0, align 8
  %44 = icmp sgt i32 %43, 0
  br i1 %44, label %.lr.ph77.preheader, label %._crit_edge

.lr.ph77.preheader:                               ; preds = %32
  %.val64.pre = load ptr, ptr %10, align 8
  br label %.lr.ph77

.lr.ph77:                                         ; preds = %.lr.ph77.preheader, %add_induce.exit
  %.val64 = phi ptr [ %60, %add_induce.exit ], [ %.val64.pre, %.lr.ph77.preheader ]
  %.176 = phi i32 [ %64, %add_induce.exit ], [ 0, %.lr.ph77.preheader ]
  %45 = sext i32 %.176 to i64
  %46 = getelementptr inbounds i32, ptr %.val64, i64 %45
  %47 = load i32, ptr %46, align 4
  %.not.i = icmp eq i32 %47, 0
  br i1 %.not.i, label %48, label %52

48:                                               ; preds = %.lr.ph77
  %49 = load ptr, ptr %18, align 8
  %50 = load i32, ptr %19, align 4
  %51 = add nsw i32 %50, 1
  store i32 %51, ptr %19, align 4
  br label %add_induce.exit

52:                                               ; preds = %.lr.ph77
  %53 = load ptr, ptr %16, align 8
  %54 = load i32, ptr %17, align 8
  %55 = add nsw i32 %54, 1
  store i32 %55, ptr %17, align 8
  br label %add_induce.exit

add_induce.exit:                                  ; preds = %48, %52
  %.sink.i = phi i32 [ %54, %52 ], [ %50, %48 ]
  %.sink1.i = phi ptr [ %53, %52 ], [ %49, %48 ]
  %56 = sext i32 %.sink.i to i64
  %57 = getelementptr inbounds i32, ptr %.sink1.i, i64 %56
  store i32 %.176, ptr %57, align 4
  %58 = load ptr, ptr %20, align 8
  %59 = getelementptr inbounds i8, ptr %58, i64 %45
  store i8 1, ptr %59, align 1
  %60 = load ptr, ptr %10, align 8
  %61 = getelementptr inbounds i32, ptr %60, i64 %45
  %62 = load i32, ptr %61, align 4
  %63 = add nsw i32 %.176, 1
  %64 = add i32 %63, %62
  %65 = load i32, ptr %0, align 8
  %66 = icmp slt i32 %64, %65
  br i1 %66, label %.lr.ph77, label %._crit_edge, !llvm.loop !56

._crit_edge:                                      ; preds = %add_induce.exit, %32
  %67 = tail call fastcc i32 @refine(ptr noundef nonnull %0, ptr noundef nonnull %1)
  %68 = load i32, ptr %15, align 8
  %69 = icmp sgt i32 %68, %42
  br i1 %69, label %.preheader, label %97

.preheader:                                       ; preds = %._crit_edge
  %70 = load i32, ptr %0, align 8
  %71 = icmp sgt i32 %70, 0
  br i1 %71, label %.lr.ph79.preheader, label %._crit_edge80

.lr.ph79.preheader:                               ; preds = %.preheader
  %.val63.pre = load ptr, ptr %10, align 8
  br label %.lr.ph79

.lr.ph79:                                         ; preds = %.lr.ph79.preheader, %add_induce.exit68
  %.val63 = phi ptr [ %87, %add_induce.exit68 ], [ %.val63.pre, %.lr.ph79.preheader ]
  %.278 = phi i32 [ %91, %add_induce.exit68 ], [ 0, %.lr.ph79.preheader ]
  %72 = sext i32 %.278 to i64
  %73 = getelementptr inbounds i32, ptr %.val63, i64 %72
  %74 = load i32, ptr %73, align 4
  %.not.i65 = icmp eq i32 %74, 0
  br i1 %.not.i65, label %75, label %79

75:                                               ; preds = %.lr.ph79
  %76 = load ptr, ptr %18, align 8
  %77 = load i32, ptr %19, align 4
  %78 = add nsw i32 %77, 1
  store i32 %78, ptr %19, align 4
  br label %add_induce.exit68

79:                                               ; preds = %.lr.ph79
  %80 = load ptr, ptr %16, align 8
  %81 = load i32, ptr %17, align 8
  %82 = add nsw i32 %81, 1
  store i32 %82, ptr %17, align 8
  br label %add_induce.exit68

add_induce.exit68:                                ; preds = %75, %79
  %.sink.i66 = phi i32 [ %81, %79 ], [ %77, %75 ]
  %.sink1.i67 = phi ptr [ %80, %79 ], [ %76, %75 ]
  %83 = sext i32 %.sink.i66 to i64
  %84 = getelementptr inbounds i32, ptr %.sink1.i67, i64 %83
  store i32 %.278, ptr %84, align 4
  %85 = load ptr, ptr %20, align 8
  %86 = getelementptr inbounds i8, ptr %85, i64 %72
  store i8 1, ptr %86, align 1
  %87 = load ptr, ptr %10, align 8
  %88 = getelementptr inbounds i32, ptr %87, i64 %72
  %89 = load i32, ptr %88, align 4
  %90 = add nsw i32 %.278, 1
  %91 = add i32 %90, %89
  %92 = load i32, ptr %0, align 8
  %93 = icmp slt i32 %91, %92
  br i1 %93, label %.lr.ph79, label %._crit_edge80, !llvm.loop !57

._crit_edge80:                                    ; preds = %add_induce.exit68, %.preheader
  %94 = load ptr, ptr %21, align 8
  store ptr %94, ptr %13, align 8
  %95 = load ptr, ptr %22, align 8
  store ptr %95, ptr %14, align 8
  %96 = tail call fastcc range(i32 0, 2) i32 @refine(ptr noundef nonnull %0, ptr noundef nonnull %1)
  br label %97

97:                                               ; preds = %._crit_edge80, %._crit_edge
  %.155 = phi i32 [ 0, %._crit_edge80 ], [ %.05481, %._crit_edge ]
  %98 = getelementptr inbounds nuw i8, ptr %33, i64 8
  %99 = load ptr, ptr %98, align 8
  %.not.i69 = icmp eq ptr %99, null
  br i1 %.not.i69, label %Vec_IntFree.exit, label %100

100:                                              ; preds = %97
  tail call void @free(ptr noundef nonnull %99) #24
  br label %Vec_IntFree.exit

Vec_IntFree.exit:                                 ; preds = %97, %100
  tail call void @free(ptr noundef nonnull %33) #24
  %.not59 = icmp eq ptr %39, null
  br i1 %.not59, label %102, label %101

101:                                              ; preds = %Vec_IntFree.exit
  tail call void @free(ptr noundef nonnull %39) #24
  br label %102

102:                                              ; preds = %Vec_IntFree.exit, %101
  %.not60 = icmp eq ptr %41, null
  br i1 %.not60, label %104, label %103

103:                                              ; preds = %102
  tail call void @free(ptr noundef nonnull %41) #24
  br label %104

104:                                              ; preds = %102, %103
  tail call void @free(ptr noundef nonnull %37) #24
  %105 = add nsw i32 %.155, 1
  %106 = load i32, ptr @NUM_SIM1_ITERATION, align 4
  %107 = icmp slt i32 %105, %106
  br i1 %107, label %.preheader70, label %.critedge, !llvm.loop !58

.critedge:                                        ; preds = %104, %.preheader70, %28, %2
  ret i32 1
}